target datalayout = "e-m:e-p270:32:32-p271:32:32-p272:64:64-i64:64-i128:128-f80:128-n8:16:32:64-S128"
target triple = "x86_64-pc-linux-gnu"

%struct.mbedtls_ssl_context = type { ptr, i32, i32, i32, i32, i32, ptr, ptr, ptr, ptr, ptr, ptr, ptr, ptr, ptr, ptr, ptr, ptr, ptr, ptr, ptr, ptr, ptr, ptr, ptr, ptr, ptr, ptr, ptr, ptr, ptr, ptr, ptr, i32, i64, i64, i16, i64, i64, i64, i64, i32, i32, i8, i8, i32, i8, ptr, ptr, ptr, ptr, ptr, ptr, ptr, i32, i64, i64, [8 x i8], i16, ptr, ptr, ptr, i64, i32, i64, [12 x i8], [12 x i8], [32 x i8], i8, i8, ptr, ptr, %union.mbedtls_ssl_user_data_t }
%union.mbedtls_ssl_user_data_t = type { i64 }
%struct.mbedtls_ssl_config = type { i32, i32, i8, i8, i8, i8, i8, i8, i8, i8, i8, i8, i16, i8, i8, i8, ptr, i32, ptr, ptr, ptr, ptr, ptr, ptr, ptr, ptr, ptr, ptr, ptr, ptr, ptr, ptr, ptr, ptr, ptr, ptr, ptr, i64, ptr, ptr, ptr, ptr, ptr, ptr, ptr, ptr, %struct.mbedtls_mpi, %struct.mbedtls_mpi, ptr, i64, ptr, i64, ptr, i32, i32, i32, i32, [8 x i8], i32, i32, %union.mbedtls_ssl_user_data_t, ptr, ptr }
%struct.mbedtls_mpi = type { ptr, i16, i16 }

@.str = private unnamed_addr constant [130 x i8] c"generated/home/dtcxzyw/WorkSpace/Projects/compilers/llvm-opt-benchmark/bench/lief/bench_build/mbed_src/library/ssl_tls12_client.c\00", align 1
@.str.75 = private unnamed_addr constant [28 x i8] c"non-matching ALPN extension\00", align 1
@.str.76 = private unnamed_addr constant [37 x i8] c"ALPN extension: no matching protocol\00", align 1

; Function Attrs: alwaysinline nounwind uwtable
define internal zeroext i16 @mbedtls_get_unaligned_uint16(ptr noundef %0) #4 {
  %2 = alloca ptr, align 8
  %3 = alloca i16, align 2
  store ptr %0, ptr %2, align 8, !tbaa !88
  call void @llvm.lifetime.start.p0(i64 2, ptr %3) #11
  %4 = load ptr, ptr %2, align 8, !tbaa !88
  call void @llvm.memcpy.p0.p0.i64(ptr align 2 %3, ptr align 1 %4, i64 2, i1 false)
  %5 = load i16, ptr %3, align 2, !tbaa !92
  call void @llvm.lifetime.end.p0(i64 2, ptr %3) #11
  ret i16 %5
}

; Function Attrs: nounwind uwtable
define internal i32 @ssl_parse_alpn_ext(ptr noundef %0, ptr noundef %1, i64 noundef %2) #0 {
  %4 = alloca i32, align 4
  %5 = alloca ptr, align 8
  %6 = alloca ptr, align 8
  %7 = alloca i64, align 8
  %8 = alloca i64, align 8
  %9 = alloca i64, align 8
  %10 = alloca ptr, align 8
  %11 = alloca i32, align 4
  store ptr %0, ptr %5, align 8, !tbaa !3
  store ptr %1, ptr %6, align 8, !tbaa !8
  store i64 %2, ptr %7, align 8, !tbaa !14
  call void @llvm.lifetime.start.p0(i64 8, ptr %8) #11
  call void @llvm.lifetime.start.p0(i64 8, ptr %9) #11
  call void @llvm.lifetime.start.p0(i64 8, ptr %10) #11
  %12 = load ptr, ptr %5, align 8, !tbaa !3
  %13 = getelementptr inbounds nuw %struct.mbedtls_ssl_context, ptr %12, i32 0, i32 0
  %14 = load ptr, ptr %13, align 8, !tbaa !25
  %15 = getelementptr inbounds nuw %struct.mbedtls_ssl_config, ptr %14, i32 0, i32 52
  %16 = load ptr, ptr %15, align 8, !tbaa !124
  %17 = icmp eq ptr %16, null
  br i1 %17, label %18, label %22

18:                                               ; preds = %3
  %19 = load ptr, ptr %5, align 8, !tbaa !3
  call void (ptr, i32, ptr, i32, ptr, ...) @mbedtls_debug_print_msg(ptr noundef %19, i32 noundef 1, ptr noundef @.str, i32 noundef 921, ptr noundef @.str.75)
  %20 = load ptr, ptr %5, align 8, !tbaa !3
  %21 = call i32 @mbedtls_ssl_send_alert_message(ptr noundef %20, i8 noundef zeroext 2, i8 noundef zeroext 110)
  store i32 -29952, ptr %4, align 4
  store i32 1, ptr %11, align 4
  br label %91

22:                                               ; preds = %3
  %23 = load i64, ptr %7, align 8, !tbaa !14
  %24 = icmp ult i64 %23, 4
  br i1 %24, label %25, label %28

25:                                               ; preds = %22
  %26 = load ptr, ptr %5, align 8, !tbaa !3
  %27 = call i32 @mbedtls_ssl_send_alert_message(ptr noundef %26, i8 noundef zeroext 2, i8 noundef zeroext 50)
  store i32 -29440, ptr %4, align 4
  store i32 1, ptr %11, align 4
  br label %91

28:                                               ; preds = %22
  %29 = load ptr, ptr %6, align 8, !tbaa !8
  %30 = getelementptr inbounds i8, ptr %29, i64 0
  %31 = call zeroext i16 @mbedtls_get_unaligned_uint16(ptr noundef %30)
  %32 = call i16 @llvm.bswap.i16(i16 %31)
  %33 = zext i16 %32 to i32
  %34 = sext i32 %33 to i64
  store i64 %34, ptr %8, align 8, !tbaa !14
  %35 = load i64, ptr %8, align 8, !tbaa !14
  %36 = load i64, ptr %7, align 8, !tbaa !14
  %37 = sub i64 %36, 2
  %38 = icmp ne i64 %35, %37
  br i1 %38, label %39, label %42

39:                                               ; preds = %28
  %40 = load ptr, ptr %5, align 8, !tbaa !3
  %41 = call i32 @mbedtls_ssl_send_alert_message(ptr noundef %40, i8 noundef zeroext 2, i8 noundef zeroext 50)
  store i32 -29440, ptr %4, align 4
  store i32 1, ptr %11, align 4
  br label %91

42:                                               ; preds = %28
  %43 = load ptr, ptr %6, align 8, !tbaa !8
  %44 = getelementptr inbounds i8, ptr %43, i64 2
  %45 = load i8, ptr %44, align 1, !tbaa !24
  %46 = zext i8 %45 to i64
  store i64 %46, ptr %9, align 8, !tbaa !14
  %47 = load i64, ptr %9, align 8, !tbaa !14
  %48 = load i64, ptr %8, align 8, !tbaa !14
  %49 = sub i64 %48, 1
  %50 = icmp ne i64 %47, %49
  br i1 %50, label %51, label %54

51:                                               ; preds = %42
  %52 = load ptr, ptr %5, align 8, !tbaa !3
  %53 = call i32 @mbedtls_ssl_send_alert_message(ptr noundef %52, i8 noundef zeroext 2, i8 noundef zeroext 50)
  store i32 -29440, ptr %4, align 4
  store i32 1, ptr %11, align 4
  br label %91

54:                                               ; preds = %42
  %55 = load ptr, ptr %5, align 8, !tbaa !3
  %56 = getelementptr inbounds nuw %struct.mbedtls_ssl_context, ptr %55, i32 0, i32 0
  %57 = load ptr, ptr %56, align 8, !tbaa !25
  %58 = getelementptr inbounds nuw %struct.mbedtls_ssl_config, ptr %57, i32 0, i32 52
  %59 = load ptr, ptr %58, align 8, !tbaa !124
  store ptr %59, ptr %10, align 8, !tbaa !125
  br label %60

60:                                               ; preds = %84, %54
  %61 = load ptr, ptr %10, align 8, !tbaa !125
  %62 = load ptr, ptr %61, align 8, !tbaa !8
  %63 = icmp ne ptr %62, null
  br i1 %63, label %64, label %87

64:                                               ; preds = %60
  %65 = load i64, ptr %9, align 8, !tbaa !14
  %66 = load ptr, ptr %10, align 8, !tbaa !125
  %67 = load ptr, ptr %66, align 8, !tbaa !8
  %68 = call i64 @strlen(ptr noundef %67) #12
  %69 = icmp eq i64 %65, %68
  br i1 %69, label %70, label %83

70:                                               ; preds = %64
  %71 = load ptr, ptr %6, align 8, !tbaa !8
  %72 = getelementptr inbounds i8, ptr %71, i64 3
  %73 = load ptr, ptr %10, align 8, !tbaa !125
  %74 = load ptr, ptr %73, align 8, !tbaa !8
  %75 = load i64, ptr %9, align 8, !tbaa !14
  %76 = call i32 @memcmp(ptr noundef %72, ptr noundef %74, i64 noundef %75) #12
  %77 = icmp eq i32 %76, 0
  br i1 %77, label %78, label %83

78:                                               ; preds = %70
  %79 = load ptr, ptr %10, align 8, !tbaa !125
  %80 = load ptr, ptr %79, align 8, !tbaa !8
  %81 = load ptr, ptr %5, align 8, !tbaa !3
  %82 = getelementptr inbounds nuw %struct.mbedtls_ssl_context, ptr %81, i32 0, i32 60
  store ptr %80, ptr %82, align 8, !tbaa !126
  store i32 0, ptr %4, align 4
  store i32 1, ptr %11, align 4
  br label %91

83:                                               ; preds = %70, %64
  br label %84

84:                                               ; preds = %83
  %85 = load ptr, ptr %10, align 8, !tbaa !125
  %86 = getelementptr inbounds nuw ptr, ptr %85, i32 1
  store ptr %86, ptr %10, align 8, !tbaa !125
  br label %60, !llvm.loop !127

87:                                               ; preds = %60
  %88 = load ptr, ptr %5, align 8, !tbaa !3
  call void (ptr, i32, ptr, i32, ptr, ...) @mbedtls_debug_print_msg(ptr noundef %88, i32 noundef 1, ptr noundef @.str, i32 noundef 969, ptr noundef @.str.76)
  %89 = load ptr, ptr %5, align 8, !tbaa !3
  %90 = call i32 @mbedtls_ssl_send_alert_message(ptr noundef %89, i8 noundef zeroext 2, i8 noundef zeroext 40)
  store i32 -28160, ptr %4, align 4
  store i32 1, ptr %11, align 4
  br label %91

91:                                               ; preds = %87, %78, %51, %39, %25, %18
  call void @llvm.lifetime.end.p0(i64 8, ptr %10) #11
  call void @llvm.lifetime.end.p0(i64 8, ptr %9) #11
  call void @llvm.lifetime.end.p0(i64 8, ptr %8) #11
  %92 = load i32, ptr %4, align 4
  ret i32 %92
}