; Function Attrs: nounwind uwtable
define internal fastcc range(i32 -29952, 1) i32 @ssl_parse_alpn_ext(ptr noundef %0, ptr noundef readonly captures(none) %1, i64 noundef range(i64 0, 65536) %2) unnamed_addr #0 {
  %4 = load ptr, ptr %0, align 8, !tbaa !19
  %5 = getelementptr inbounds nuw i8, ptr %4, i64 328
  %6 = load ptr, ptr %5, align 8, !tbaa !121
  %7 = icmp eq ptr %6, null
  br i1 %7, label %8, label %10

8:                                                ; preds = %3
  tail call void (ptr, i32, ptr, i32, ptr, ...) @mbedtls_debug_print_msg(ptr noundef nonnull %0, i32 noundef 1, ptr noundef nonnull @.str, i32 noundef 921, ptr noundef nonnull @.str.75) #14
  %9 = tail call i32 @mbedtls_ssl_send_alert_message(ptr noundef nonnull %0, i8 noundef zeroext 2, i8 noundef zeroext 110) #14
  br label %41

10:                                               ; preds = %3
  %11 = icmp samesign ult i64 %2, 4
  br i1 %11, label %12, label %14

12:                                               ; preds = %10
  %13 = tail call i32 @mbedtls_ssl_send_alert_message(ptr noundef nonnull %0, i8 noundef zeroext 2, i8 noundef zeroext 50) #14
  br label %41

14:                                               ; preds = %10
  %.0.copyload.i = load i16, ptr %1, align 1
  %15 = tail call i16 @llvm.bswap.i16(i16 %.0.copyload.i)
  %16 = zext i16 %15 to i64
  %17 = add nsw i64 %2, -2
  %.not = icmp eq i64 %17, %16
  br i1 %.not, label %20, label %18

18:                                               ; preds = %14
  %19 = tail call i32 @mbedtls_ssl_send_alert_message(ptr noundef nonnull %0, i8 noundef zeroext 2, i8 noundef zeroext 50) #14
  br label %41

20:                                               ; preds = %14
  %21 = getelementptr inbounds nuw i8, ptr %1, i64 2
  %22 = load i8, ptr %21, align 1, !tbaa !18
  %23 = zext i8 %22 to i64
  %24 = add nsw i64 %16, -1
  %.not30 = icmp eq i64 %24, %23
  br i1 %.not30, label %.preheader, label %27

.preheader:                                       ; preds = %20
  %25 = load ptr, ptr %6, align 8, !tbaa !84
  %.not3133 = icmp eq ptr %25, null
  br i1 %.not3133, label %._crit_edge, label %.lr.ph

.lr.ph:                                           ; preds = %.preheader
  %26 = getelementptr inbounds nuw i8, ptr %1, i64 3
  br label %29

27:                                               ; preds = %20
  %28 = tail call i32 @mbedtls_ssl_send_alert_message(ptr noundef nonnull %0, i8 noundef zeroext 2, i8 noundef zeroext 50) #14
  br label %41

29:                                               ; preds = %.lr.ph, %37
  %30 = phi ptr [ %25, %.lr.ph ], [ %39, %37 ]
  %.034 = phi ptr [ %6, %.lr.ph ], [ %38, %37 ]
  %31 = tail call i64 @strlen(ptr noundef nonnull dereferenceable(1) %30) #16
  %32 = icmp eq i64 %31, %23
  br i1 %32, label %33, label %37

33:                                               ; preds = %29
  %bcmp = tail call i32 @bcmp(ptr nonnull %26, ptr nonnull %30, i64 %23)
  %34 = icmp eq i32 %bcmp, 0
  br i1 %34, label %35, label %37

35:                                               ; preds = %33
  %36 = getelementptr inbounds nuw i8, ptr %0, i64 440
  store ptr %30, ptr %36, align 8, !tbaa !122
  br label %41

37:                                               ; preds = %29, %33
  %38 = getelementptr inbounds nuw i8, ptr %.034, i64 8
  %39 = load ptr, ptr %38, align 8, !tbaa !84
  %.not31 = icmp eq ptr %39, null
  br i1 %.not31, label %._crit_edge, label %29, !llvm.loop !123

._crit_edge:                                      ; preds = %37, %.preheader
  tail call void (ptr, i32, ptr, i32, ptr, ...) @mbedtls_debug_print_msg(ptr noundef nonnull %0, i32 noundef 1, ptr noundef nonnull @.str, i32 noundef 969, ptr noundef nonnull @.str.76) #14
  %40 = tail call i32 @mbedtls_ssl_send_alert_message(ptr noundef nonnull %0, i8 noundef zeroext 2, i8 noundef zeroext 40) #14
  br label %41

41:                                               ; preds = %._crit_edge, %35, %27, %18, %12, %8
  %.025 = phi i32 [ -29952, %8 ], [ -29440, %12 ], [ -29440, %18 ], [ -29440, %27 ], [ 0, %35 ], [ -28160, %._crit_edge ]
  ret i32 %.025
}